; Function Attrs: nounwind uwtable
define void @PMIx_Argv_free(ptr noundef captures(address_is_null) %0) local_unnamed_addr #6 {
  %.not.i = icmp eq ptr %0, null
  br i1 %.not.i, label %pmix_bfrops_base_tma_argv_free.exit, label %.preheader.i

.preheader.i:                                     ; preds = %1
  %2 = load ptr, ptr %0, align 8, !tbaa !12
  %.not101.i = icmp eq ptr %2, null
  br i1 %.not101.i, label %._crit_edge.i, label %.lr.ph.i

._crit_edge.i:                                    ; preds = %.lr.ph.i, %.preheader.i
  tail call void @free(ptr noundef nonnull %0) #44
  br label %pmix_bfrops_base_tma_argv_free.exit

.lr.ph.i:                                         ; preds = %.preheader.i, %.lr.ph.i
  %3 = phi ptr [ %5, %.lr.ph.i ], [ %2, %.preheader.i ]
  %.02.i = phi ptr [ %4, %.lr.ph.i ], [ %0, %.preheader.i ]
  tail call void @free(ptr noundef nonnull %3) #44
  %4 = getelementptr inbounds nuw i8, ptr %.02.i, i64 8
  %5 = load ptr, ptr %4, align 8, !tbaa !12
  %.not10.i = icmp eq ptr %5, null
  br i1 %.not10.i, label %._crit_edge.i, label %.lr.ph.i, !llvm.loop !19

pmix_bfrops_base_tma_argv_free.exit:              ; preds = %1, %._crit_edge.i
  ret void
}